target datalayout = "e-m:e-p270:32:32-p271:32:32-p272:64:64-i64:64-i128:128-f80:128-n8:16:32:64-S128"
target triple = "x86_64-pc-linux-gnu"

%struct.Dch_Man_t_ = type { ptr, ptr, ptr, ptr, ptr, ptr, i32, ptr, ptr, i32, i32, ptr, ptr, ptr, i32, i32, i32, i32, i32, i32, i32, i32, i32, i32, i32, i64, i64, i64, i64, i64, i64, i64, i64, i64 }
%struct.Dch_Pars_t_ = type { i32, i32, i32, i32, i32, i32, i32, i32, i32, i32, i32, i32, i32, i32, i64, i32, i32 }
%struct.Aig_Obj_t_ = type { %union.anon, ptr, ptr, i64, i32, i32, %union.anon.0 }
%union.anon = type { ptr }
%union.anon.0 = type { ptr }
%struct.Vec_Ptr_t_ = type { i32, i32, ptr }

; Function Attrs: inlinehint nounwind uwtable
define internal i32 @lit_neg(i32 noundef %0) #3 {
  %2 = alloca i32, align 4
  store i32 %0, ptr %2, align 4, !tbaa !10
  %3 = load i32, ptr %2, align 4, !tbaa !10
  %4 = xor i32 %3, 1
  ret i32 %4
}

; Function Attrs: inlinehint nounwind uwtable
define internal i32 @toLitCond(i32 noundef %0, i32 noundef %1) #3 {
  %3 = alloca i32, align 4
  %4 = alloca i32, align 4
  store i32 %0, ptr %3, align 4, !tbaa !10
  store i32 %1, ptr %4, align 4, !tbaa !10
  %5 = load i32, ptr %3, align 4, !tbaa !10
  %6 = load i32, ptr %3, align 4, !tbaa !10
  %7 = add nsw i32 %5, %6
  %8 = load i32, ptr %4, align 4, !tbaa !10
  %9 = icmp ne i32 %8, 0
  %10 = zext i1 %9 to i32
  %11 = add nsw i32 %7, %10
  ret i32 %11
}

; Function Attrs: inlinehint nounwind uwtable
define internal i32 @Aig_IsComplement(ptr noundef %0) #3 {
  %2 = alloca ptr, align 8
  store ptr %0, ptr %2, align 8, !tbaa !8
  %3 = load ptr, ptr %2, align 8, !tbaa !8
  %4 = ptrtoint ptr %3 to i64
  %5 = and i64 %4, 1
  %6 = trunc i64 %5 to i32
  ret i32 %6
}

; Function Attrs: inlinehint nounwind uwtable
define internal i32 @Dch_ObjSatNum(ptr noundef %0, ptr noundef %1) #3 {
  %3 = alloca ptr, align 8
  %4 = alloca ptr, align 8
  store ptr %0, ptr %3, align 8, !tbaa !3
  store ptr %1, ptr %4, align 8, !tbaa !8
  %5 = load ptr, ptr %3, align 8, !tbaa !3
  %6 = getelementptr inbounds nuw %struct.Dch_Man_t_, ptr %5, i32 0, i32 7
  %7 = load ptr, ptr %6, align 8, !tbaa !25
  %8 = load ptr, ptr %4, align 8, !tbaa !8
  %9 = getelementptr inbounds nuw %struct.Aig_Obj_t_, ptr %8, i32 0, i32 5
  %10 = load i32, ptr %9, align 4, !tbaa !26
  %11 = sext i32 %10 to i64
  %12 = getelementptr inbounds i32, ptr %7, i64 %11
  %13 = load i32, ptr %12, align 4, !tbaa !10
  ret i32 %13
}

; Function Attrs: inlinehint nounwind uwtable
define internal ptr @Aig_Regular(ptr noundef %0) #3 {
  %2 = alloca ptr, align 8
  store ptr %0, ptr %2, align 8, !tbaa !8
  %3 = load ptr, ptr %2, align 8, !tbaa !8
  %4 = ptrtoint ptr %3 to i64
  %5 = and i64 %4, -2
  %6 = inttoptr i64 %5 to ptr
  ret ptr %6
}

; Function Attrs: inlinehint nounwind uwtable
define internal ptr @Vec_PtrEntry(ptr noundef %0, i32 noundef %1) #3 {
  %3 = alloca ptr, align 8
  %4 = alloca i32, align 4
  store ptr %0, ptr %3, align 8, !tbaa !28
  store i32 %1, ptr %4, align 4, !tbaa !10
  %5 = load ptr, ptr %3, align 8, !tbaa !28
  %6 = getelementptr inbounds nuw %struct.Vec_Ptr_t_, ptr %5, i32 0, i32 2
  %7 = load ptr, ptr %6, align 8, !tbaa !35
  %8 = load i32, ptr %4, align 4, !tbaa !10
  %9 = sext i32 %8 to i64
  %10 = getelementptr inbounds ptr, ptr %7, i64 %9
  %11 = load ptr, ptr %10, align 8, !tbaa !36
  ret ptr %11
}

; Function Attrs: inlinehint nounwind uwtable
define internal i32 @Vec_PtrSize(ptr noundef %0) #3 {
  %2 = alloca ptr, align 8
  store ptr %0, ptr %2, align 8, !tbaa !28
  %3 = load ptr, ptr %2, align 8, !tbaa !28
  %4 = getelementptr inbounds nuw %struct.Vec_Ptr_t_, ptr %3, i32 0, i32 1
  %5 = load i32, ptr %4, align 4, !tbaa !33
  ret i32 %5
}

; Function Attrs: nounwind uwtable
define void @Dch_AddClausesSuper(ptr noundef %0, ptr noundef %1, ptr noundef %2) #0 {
  %4 = alloca ptr, align 8
  %5 = alloca ptr, align 8
  %6 = alloca ptr, align 8
  %7 = alloca ptr, align 8
  %8 = alloca ptr, align 8
  %9 = alloca i32, align 4
  %10 = alloca i32, align 4
  %11 = alloca i32, align 4
  store ptr %0, ptr %4, align 8, !tbaa !3
  store ptr %1, ptr %5, align 8, !tbaa !8
  store ptr %2, ptr %6, align 8, !tbaa !28
  call void @llvm.lifetime.start.p0(i64 8, ptr %7) #7
  call void @llvm.lifetime.start.p0(i64 8, ptr %8) #7
  call void @llvm.lifetime.start.p0(i64 4, ptr %9) #7
  call void @llvm.lifetime.start.p0(i64 4, ptr %10) #7
  call void @llvm.lifetime.start.p0(i64 4, ptr %11) #7
  %12 = load ptr, ptr %6, align 8, !tbaa !28
  %13 = call i32 @Vec_PtrSize(ptr noundef %12)
  %14 = add nsw i32 %13, 1
  store i32 %14, ptr %9, align 4, !tbaa !10
  %15 = load i32, ptr %9, align 4, !tbaa !10
  %16 = sext i32 %15 to i64
  %17 = mul i64 4, %16
  %18 = call noalias ptr @malloc(i64 noundef %17) #8
  store ptr %18, ptr %8, align 8, !tbaa !29
  store i32 0, ptr %11, align 4, !tbaa !10
  br label %19

19:                                               ; preds = %92, %3
  %20 = load i32, ptr %11, align 4, !tbaa !10
  %21 = load ptr, ptr %6, align 8, !tbaa !28
  %22 = call i32 @Vec_PtrSize(ptr noundef %21)
  %23 = icmp slt i32 %20, %22
  br i1 %23, label %24, label %28

24:                                               ; preds = %19
  %25 = load ptr, ptr %6, align 8, !tbaa !28
  %26 = load i32, ptr %11, align 4, !tbaa !10
  %27 = call ptr @Vec_PtrEntry(ptr noundef %25, i32 noundef %26)
  store ptr %27, ptr %7, align 8, !tbaa !8
  br label %28

28:                                               ; preds = %24, %19
  %29 = phi i1 [ false, %19 ], [ true, %24 ]
  br i1 %29, label %30, label %95

30:                                               ; preds = %28
  %31 = load ptr, ptr %4, align 8, !tbaa !3
  %32 = load ptr, ptr %7, align 8, !tbaa !8
  %33 = call ptr @Aig_Regular(ptr noundef %32)
  %34 = call i32 @Dch_ObjSatNum(ptr noundef %31, ptr noundef %33)
  %35 = load ptr, ptr %7, align 8, !tbaa !8
  %36 = call i32 @Aig_IsComplement(ptr noundef %35)
  %37 = call i32 @toLitCond(i32 noundef %34, i32 noundef %36)
  %38 = load ptr, ptr %8, align 8, !tbaa !29
  %39 = getelementptr inbounds i32, ptr %38, i64 0
  store i32 %37, ptr %39, align 4, !tbaa !10
  %40 = load ptr, ptr %4, align 8, !tbaa !3
  %41 = load ptr, ptr %5, align 8, !tbaa !8
  %42 = call i32 @Dch_ObjSatNum(ptr noundef %40, ptr noundef %41)
  %43 = call i32 @toLitCond(i32 noundef %42, i32 noundef 1)
  %44 = load ptr, ptr %8, align 8, !tbaa !29
  %45 = getelementptr inbounds i32, ptr %44, i64 1
  store i32 %43, ptr %45, align 4, !tbaa !10
  %46 = load ptr, ptr %4, align 8, !tbaa !3
  %47 = getelementptr inbounds nuw %struct.Dch_Man_t_, ptr %46, i32 0, i32 0
  %48 = load ptr, ptr %47, align 8, !tbaa !12
  %49 = getelementptr inbounds nuw %struct.Dch_Pars_t_, ptr %48, i32 0, i32 4
  %50 = load i32, ptr %49, align 8, !tbaa !22
  %51 = icmp ne i32 %50, 0
  br i1 %51, label %52, label %84

52:                                               ; preds = %30
  %53 = load ptr, ptr %7, align 8, !tbaa !8
  %54 = call ptr @Aig_Regular(ptr noundef %53)
  %55 = getelementptr inbounds nuw %struct.Aig_Obj_t_, ptr %54, i32 0, i32 3
  %56 = load i64, ptr %55, align 8
  %57 = lshr i64 %56, 3
  %58 = and i64 %57, 1
  %59 = trunc i64 %58 to i32
  %60 = icmp ne i32 %59, 0
  br i1 %60, label %61, label %68

61:                                               ; preds = %52
  %62 = load ptr, ptr %8, align 8, !tbaa !29
  %63 = getelementptr inbounds i32, ptr %62, i64 0
  %64 = load i32, ptr %63, align 4, !tbaa !10
  %65 = call i32 @lit_neg(i32 noundef %64)
  %66 = load ptr, ptr %8, align 8, !tbaa !29
  %67 = getelementptr inbounds i32, ptr %66, i64 0
  store i32 %65, ptr %67, align 4, !tbaa !10
  br label %68

68:                                               ; preds = %61, %52
  %69 = load ptr, ptr %5, align 8, !tbaa !8
  %70 = getelementptr inbounds nuw %struct.Aig_Obj_t_, ptr %69, i32 0, i32 3
  %71 = load i64, ptr %70, align 8
  %72 = lshr i64 %71, 3
  %73 = and i64 %72, 1
  %74 = trunc i64 %73 to i32
  %75 = icmp ne i32 %74, 0
  br i1 %75, label %76, label %83

76:                                               ; preds = %68
  %77 = load ptr, ptr %8, align 8, !tbaa !29
  %78 = getelementptr inbounds i32, ptr %77, i64 1
  %79 = load i32, ptr %78, align 4, !tbaa !10
  %80 = call i32 @lit_neg(i32 noundef %79)
  %81 = load ptr, ptr %8, align 8, !tbaa !29
  %82 = getelementptr inbounds i32, ptr %81, i64 1
  store i32 %80, ptr %82, align 4, !tbaa !10
  br label %83

83:                                               ; preds = %76, %68
  br label %84

84:                                               ; preds = %83, %30
  %85 = load ptr, ptr %4, align 8, !tbaa !3
  %86 = getelementptr inbounds nuw %struct.Dch_Man_t_, ptr %85, i32 0, i32 5
  %87 = load ptr, ptr %86, align 8, !tbaa !24
  %88 = load ptr, ptr %8, align 8, !tbaa !29
  %89 = load ptr, ptr %8, align 8, !tbaa !29
  %90 = getelementptr inbounds i32, ptr %89, i64 2
  %91 = call i32 @sat_solver_addclause(ptr noundef %87, ptr noundef %88, ptr noundef %90)
  store i32 %91, ptr %10, align 4, !tbaa !10
  br label %92

92:                                               ; preds = %84
  %93 = load i32, ptr %11, align 4, !tbaa !10
  %94 = add nsw i32 %93, 1
  store i32 %94, ptr %11, align 4, !tbaa !10
  br label %19, !llvm.loop !30

95:                                               ; preds = %28
  store i32 0, ptr %11, align 4, !tbaa !10
  br label %96

96:                                               ; preds = %150, %95
  %97 = load i32, ptr %11, align 4, !tbaa !10
  %98 = load ptr, ptr %6, align 8, !tbaa !28
  %99 = call i32 @Vec_PtrSize(ptr noundef %98)
  %100 = icmp slt i32 %97, %99
  br i1 %100, label %101, label %105

101:                                              ; preds = %96
  %102 = load ptr, ptr %6, align 8, !tbaa !28
  %103 = load i32, ptr %11, align 4, !tbaa !10
  %104 = call ptr @Vec_PtrEntry(ptr noundef %102, i32 noundef %103)
  store ptr %104, ptr %7, align 8, !tbaa !8
  br label %105

105:                                              ; preds = %101, %96
  %106 = phi i1 [ false, %96 ], [ true, %101 ]
  br i1 %106, label %107, label %153

107:                                              ; preds = %105
  %108 = load ptr, ptr %4, align 8, !tbaa !3
  %109 = load ptr, ptr %7, align 8, !tbaa !8
  %110 = call ptr @Aig_Regular(ptr noundef %109)
  %111 = call i32 @Dch_ObjSatNum(ptr noundef %108, ptr noundef %110)
  %112 = load ptr, ptr %7, align 8, !tbaa !8
  %113 = call i32 @Aig_IsComplement(ptr noundef %112)
  %114 = icmp ne i32 %113, 0
  %115 = xor i1 %114, true
  %116 = zext i1 %115 to i32
  %117 = call i32 @toLitCond(i32 noundef %111, i32 noundef %116)
  %118 = load ptr, ptr %8, align 8, !tbaa !29
  %119 = load i32, ptr %11, align 4, !tbaa !10
  %120 = sext i32 %119 to i64
  %121 = getelementptr inbounds i32, ptr %118, i64 %120
  store i32 %117, ptr %121, align 4, !tbaa !10
  %122 = load ptr, ptr %4, align 8, !tbaa !3
  %123 = getelementptr inbounds nuw %struct.Dch_Man_t_, ptr %122, i32 0, i32 0
  %124 = load ptr, ptr %123, align 8, !tbaa !12
  %125 = getelementptr inbounds nuw %struct.Dch_Pars_t_, ptr %124, i32 0, i32 4
  %126 = load i32, ptr %125, align 8, !tbaa !22
  %127 = icmp ne i32 %126, 0
  br i1 %127, label %128, label %149

128:                                              ; preds = %107
  %129 = load ptr, ptr %7, align 8, !tbaa !8
  %130 = call ptr @Aig_Regular(ptr noundef %129)
  %131 = getelementptr inbounds nuw %struct.Aig_Obj_t_, ptr %130, i32 0, i32 3
  %132 = load i64, ptr %131, align 8
  %133 = lshr i64 %132, 3
  %134 = and i64 %133, 1
  %135 = trunc i64 %134 to i32
  %136 = icmp ne i32 %135, 0
  br i1 %136, label %137, label %148

137:                                              ; preds = %128
  %138 = load ptr, ptr %8, align 8, !tbaa !29
  %139 = load i32, ptr %11, align 4, !tbaa !10
  %140 = sext i32 %139 to i64
  %141 = getelementptr inbounds i32, ptr %138, i64 %140
  %142 = load i32, ptr %141, align 4, !tbaa !10
  %143 = call i32 @lit_neg(i32 noundef %142)
  %144 = load ptr, ptr %8, align 8, !tbaa !29
  %145 = load i32, ptr %11, align 4, !tbaa !10
  %146 = sext i32 %145 to i64
  %147 = getelementptr inbounds i32, ptr %144, i64 %146
  store i32 %143, ptr %147, align 4, !tbaa !10
  br label %148

148:                                              ; preds = %137, %128
  br label %149

149:                                              ; preds = %148, %107
  br label %150

150:                                              ; preds = %149
  %151 = load i32, ptr %11, align 4, !tbaa !10
  %152 = add nsw i32 %151, 1
  store i32 %152, ptr %11, align 4, !tbaa !10
  br label %96, !llvm.loop !32

153:                                              ; preds = %105
  %154 = load ptr, ptr %4, align 8, !tbaa !3
  %155 = load ptr, ptr %5, align 8, !tbaa !8
  %156 = call i32 @Dch_ObjSatNum(ptr noundef %154, ptr noundef %155)
  %157 = call i32 @toLitCond(i32 noundef %156, i32 noundef 0)
  %158 = load ptr, ptr %8, align 8, !tbaa !29
  %159 = load i32, ptr %9, align 4, !tbaa !10
  %160 = sub nsw i32 %159, 1
  %161 = sext i32 %160 to i64
  %162 = getelementptr inbounds i32, ptr %158, i64 %161
  store i32 %157, ptr %162, align 4, !tbaa !10
  %163 = load ptr, ptr %4, align 8, !tbaa !3
  %164 = getelementptr inbounds nuw %struct.Dch_Man_t_, ptr %163, i32 0, i32 0
  %165 = load ptr, ptr %164, align 8, !tbaa !12
  %166 = getelementptr inbounds nuw %struct.Dch_Pars_t_, ptr %165, i32 0, i32 4
  %167 = load i32, ptr %166, align 8, !tbaa !22
  %168 = icmp ne i32 %167, 0
  br i1 %168, label %169, label %191

169:                                              ; preds = %153
  %170 = load ptr, ptr %5, align 8, !tbaa !8
  %171 = getelementptr inbounds nuw %struct.Aig_Obj_t_, ptr %170, i32 0, i32 3
  %172 = load i64, ptr %171, align 8
  %173 = lshr i64 %172, 3
  %174 = and i64 %173, 1
  %175 = trunc i64 %174 to i32
  %176 = icmp ne i32 %175, 0
  br i1 %176, label %177, label %190

177:                                              ; preds = %169
  %178 = load ptr, ptr %8, align 8, !tbaa !29
  %179 = load i32, ptr %9, align 4, !tbaa !10
  %180 = sub nsw i32 %179, 1
  %181 = sext i32 %180 to i64
  %182 = getelementptr inbounds i32, ptr %178, i64 %181
  %183 = load i32, ptr %182, align 4, !tbaa !10
  %184 = call i32 @lit_neg(i32 noundef %183)
  %185 = load ptr, ptr %8, align 8, !tbaa !29
  %186 = load i32, ptr %9, align 4, !tbaa !10
  %187 = sub nsw i32 %186, 1
  %188 = sext i32 %187 to i64
  %189 = getelementptr inbounds i32, ptr %185, i64 %188
  store i32 %184, ptr %189, align 4, !tbaa !10
  br label %190

190:                                              ; preds = %177, %169
  br label %191

191:                                              ; preds = %190, %153
  %192 = load ptr, ptr %4, align 8, !tbaa !3
  %193 = getelementptr inbounds nuw %struct.Dch_Man_t_, ptr %192, i32 0, i32 5
  %194 = load ptr, ptr %193, align 8, !tbaa !24
  %195 = load ptr, ptr %8, align 8, !tbaa !29
  %196 = load ptr, ptr %8, align 8, !tbaa !29
  %197 = load i32, ptr %9, align 4, !tbaa !10
  %198 = sext i32 %197 to i64
  %199 = getelementptr inbounds i32, ptr %196, i64 %198
  %200 = call i32 @sat_solver_addclause(ptr noundef %194, ptr noundef %195, ptr noundef %199)
  store i32 %200, ptr %10, align 4, !tbaa !10
  %201 = load ptr, ptr %8, align 8, !tbaa !29
  %202 = icmp ne ptr %201, null
  br i1 %202, label %203, label %205

203:                                              ; preds = %191
  %204 = load ptr, ptr %8, align 8, !tbaa !29
  call void @free(ptr noundef %204) #7
  store ptr null, ptr %8, align 8, !tbaa !29
  br label %206

205:                                              ; preds = %191
  br label %206

206:                                              ; preds = %205, %203
  call void @llvm.lifetime.end.p0(i64 4, ptr %11) #7
  call void @llvm.lifetime.end.p0(i64 4, ptr %10) #7
  call void @llvm.lifetime.end.p0(i64 4, ptr %9) #7
  call void @llvm.lifetime.end.p0(i64 8, ptr %8) #7
  call void @llvm.lifetime.end.p0(i64 8, ptr %7) #7
  ret void
}