; Function Attrs: nounwind uwtable
define void @Dch_AddClausesSuper(ptr noundef readonly captures(none) %0, ptr noundef readonly captures(none) %1, ptr noundef readonly captures(none) %2) local_unnamed_addr #0 {
  %4 = getelementptr i8, ptr %2, i64 4
  %.val73 = load i32, ptr %4, align 4, !tbaa !26
  %5 = add nsw i32 %.val73, 1
  %6 = sext i32 %5 to i64
  %7 = shl nsw i64 %6, 2
  %8 = tail call noalias ptr @malloc(i64 noundef %7) #8
  %9 = icmp sgt i32 %.val73, 0
  br i1 %9, label %.lr.ph, label %.critedge.preheader..critedge2_crit_edge

.lr.ph:                                           ; preds = %3
  %10 = getelementptr i8, ptr %2, i64 8
  %11 = getelementptr i8, ptr %0, i64 56
  %12 = getelementptr i8, ptr %1, i64 36
  %13 = getelementptr inbounds nuw i8, ptr %8, i64 4
  %14 = getelementptr inbounds nuw i8, ptr %1, i64 24
  %15 = getelementptr inbounds nuw i8, ptr %0, i64 40
  %16 = getelementptr inbounds nuw i8, ptr %8, i64 8
  br label %22

.critedge.preheader:                              ; preds = %54
  %17 = icmp sgt i32 %.val74, 0
  br i1 %17, label %.lr.ph81, label %.critedge.preheader..critedge2_crit_edge

.critedge.preheader..critedge2_crit_edge:         ; preds = %3, %.critedge.preheader
  %.phi.trans.insert = getelementptr i8, ptr %0, i64 56
  %.val.pre = load ptr, ptr %.phi.trans.insert, align 8, !tbaa !3
  %.pre = load ptr, ptr %0, align 8, !tbaa !22
  br label %.critedge2

.lr.ph81:                                         ; preds = %.critedge.preheader
  %18 = getelementptr i8, ptr %2, i64 8
  %.val77 = load ptr, ptr %18, align 8, !tbaa !28
  %19 = getelementptr i8, ptr %0, i64 56
  %.val67 = load ptr, ptr %19, align 8, !tbaa !3
  %20 = load ptr, ptr %0, align 8, !tbaa !22
  %21 = getelementptr inbounds nuw i8, ptr %20, i64 16
  %wide.trip.count = zext nneg i32 %.val74 to i64
  br label %59

22:                                               ; preds = %.lr.ph, %54
  %indvars.iv = phi i64 [ 0, %.lr.ph ], [ %indvars.iv.next, %54 ]
  %.val76 = load ptr, ptr %10, align 8, !tbaa !28
  %23 = getelementptr inbounds nuw ptr, ptr %.val76, i64 %indvars.iv
  %24 = load ptr, ptr %23, align 8, !tbaa !29
  %25 = ptrtoint ptr %24 to i64
  %26 = and i64 %25, -2
  %27 = inttoptr i64 %26 to ptr
  %.val71 = load ptr, ptr %11, align 8, !tbaa !3
  %28 = getelementptr i8, ptr %27, i64 36
  %.val72 = load i32, ptr %28, align 4, !tbaa !17
  %29 = sext i32 %.val72 to i64
  %30 = getelementptr inbounds i32, ptr %.val71, i64 %29
  %31 = load i32, ptr %30, align 4, !tbaa !20
  %32 = trunc i64 %25 to i32
  %33 = and i32 %32, 1
  %34 = shl nsw i32 %31, 1
  %35 = or disjoint i32 %34, %33
  store i32 %35, ptr %8, align 4, !tbaa !20
  %.val70 = load i32, ptr %12, align 4, !tbaa !17
  %36 = sext i32 %.val70 to i64
  %37 = getelementptr inbounds i32, ptr %.val71, i64 %36
  %38 = load i32, ptr %37, align 4, !tbaa !20
  %39 = shl nsw i32 %38, 1
  %40 = or disjoint i32 %39, 1
  store i32 %40, ptr %13, align 4, !tbaa !20
  %41 = load ptr, ptr %0, align 8, !tbaa !22
  %42 = getelementptr inbounds nuw i8, ptr %41, i64 16
  %43 = load i32, ptr %42, align 8, !tbaa !23
  %.not63 = icmp eq i32 %43, 0
  br i1 %.not63, label %54, label %44

44:                                               ; preds = %22
  %45 = getelementptr inbounds nuw i8, ptr %27, i64 24
  %46 = load i64, ptr %45, align 8
  %47 = and i64 %46, 8
  %.not64 = icmp eq i64 %47, 0
  br i1 %.not64, label %50, label %48

48:                                               ; preds = %44
  %49 = xor i32 %35, 1
  store i32 %49, ptr %8, align 4, !tbaa !20
  br label %50

50:                                               ; preds = %48, %44
  %51 = load i64, ptr %14, align 8
  %52 = and i64 %51, 8
  %.not65 = icmp eq i64 %52, 0
  br i1 %.not65, label %54, label %53

53:                                               ; preds = %50
  store i32 %39, ptr %13, align 4, !tbaa !20
  br label %54

54:                                               ; preds = %50, %53, %22
  %55 = load ptr, ptr %15, align 8, !tbaa !25
  %56 = tail call i32 @sat_solver_addclause(ptr noundef %55, ptr noundef nonnull %8, ptr noundef nonnull %16) #7
  %indvars.iv.next = add nuw nsw i64 %indvars.iv, 1
  %.val74 = load i32, ptr %4, align 4, !tbaa !26
  %57 = sext i32 %.val74 to i64
  %58 = icmp slt i64 %indvars.iv.next, %57
  br i1 %58, label %22, label %.critedge.preheader, !llvm.loop !30

59:                                               ; preds = %.lr.ph81, %.critedge
  %indvars.iv84 = phi i64 [ 0, %.lr.ph81 ], [ %indvars.iv.next85, %.critedge ]
  %60 = getelementptr inbounds nuw ptr, ptr %.val77, i64 %indvars.iv84
  %61 = load ptr, ptr %60, align 8, !tbaa !29
  %62 = ptrtoint ptr %61 to i64
  %63 = and i64 %62, -2
  %64 = inttoptr i64 %63 to ptr
  %65 = getelementptr i8, ptr %64, i64 36
  %.val68 = load i32, ptr %65, align 4, !tbaa !17
  %66 = sext i32 %.val68 to i64
  %67 = getelementptr inbounds i32, ptr %.val67, i64 %66
  %68 = load i32, ptr %67, align 4, !tbaa !20
  %69 = trunc i64 %62 to i32
  %70 = and i32 %69, 1
  %71 = shl nsw i32 %68, 1
  %72 = or disjoint i32 %71, %70
  %73 = xor i32 %72, 1
  %74 = getelementptr inbounds nuw i32, ptr %8, i64 %indvars.iv84
  store i32 %73, ptr %74, align 4, !tbaa !20
  %75 = load i32, ptr %21, align 8, !tbaa !23
  %.not61 = icmp eq i32 %75, 0
  br i1 %.not61, label %.critedge, label %76

76:                                               ; preds = %59
  %77 = getelementptr inbounds nuw i8, ptr %64, i64 24
  %78 = load i64, ptr %77, align 8
  %79 = and i64 %78, 8
  %.not62 = icmp eq i64 %79, 0
  br i1 %.not62, label %.critedge, label %80

80:                                               ; preds = %76
  store i32 %72, ptr %74, align 4, !tbaa !20
  br label %.critedge

.critedge:                                        ; preds = %59, %80, %76
  %indvars.iv.next85 = add nuw nsw i64 %indvars.iv84, 1
  %exitcond.not = icmp eq i64 %indvars.iv.next85, %wide.trip.count
  br i1 %exitcond.not, label %.critedge2, label %59, !llvm.loop !32

.critedge2:                                       ; preds = %.critedge, %.critedge.preheader..critedge2_crit_edge
  %81 = phi ptr [ %.pre, %.critedge.preheader..critedge2_crit_edge ], [ %20, %.critedge ]
  %.val = phi ptr [ %.val.pre, %.critedge.preheader..critedge2_crit_edge ], [ %.val67, %.critedge ]
  %82 = getelementptr i8, ptr %1, i64 36
  %.val66 = load i32, ptr %82, align 4, !tbaa !17
  %83 = sext i32 %.val66 to i64
  %84 = getelementptr inbounds i32, ptr %.val, i64 %83
  %85 = load i32, ptr %84, align 4, !tbaa !20
  %86 = shl nsw i32 %85, 1
  %87 = sext i32 %.val73 to i64
  %88 = getelementptr inbounds i32, ptr %8, i64 %87
  store i32 %86, ptr %88, align 4, !tbaa !20
  %89 = getelementptr inbounds nuw i8, ptr %81, i64 16
  %90 = load i32, ptr %89, align 8, !tbaa !23
  %.not = icmp eq i32 %90, 0
  br i1 %.not, label %97, label %91

91:                                               ; preds = %.critedge2
  %92 = getelementptr inbounds nuw i8, ptr %1, i64 24
  %93 = load i64, ptr %92, align 8
  %94 = and i64 %93, 8
  %.not58 = icmp eq i64 %94, 0
  br i1 %.not58, label %97, label %95

95:                                               ; preds = %91
  %96 = or disjoint i32 %86, 1
  store i32 %96, ptr %88, align 4, !tbaa !20
  br label %97

97:                                               ; preds = %91, %95, %.critedge2
  %98 = getelementptr inbounds nuw i8, ptr %0, i64 40
  %99 = load ptr, ptr %98, align 8, !tbaa !25
  %100 = getelementptr inbounds i32, ptr %8, i64 %6
  %101 = tail call i32 @sat_solver_addclause(ptr noundef %99, ptr noundef nonnull %8, ptr noundef %100) #7
  tail call void @free(ptr noundef nonnull %8) #7
  ret void
}